; Function Attrs: mustprogress nofree norecurse nosync nounwind willreturn memory(argmem: readwrite) uwtable
define internal float @compute_avg_flt(ptr noundef captures(none) %0, float noundef %1, float noundef %2, i32 noundef %3, ptr readnone captures(none) %4, ptr readnone captures(none) %5) #7 {
  %7 = tail call nsz float @llvm.fabs.f32(float %1)
  %8 = load float, ptr %0, align 4, !tbaa !99
  %9 = fadd nsz float %7, %8
  %10 = tail call nsz float @llvm.fabs.f32(float %2)
  %11 = fsub nsz float %9, %10
  %12 = tail call nsz float @llvm.maxnum.f32(float %11, float 0.000000e+00)
  store float %12, ptr %0, align 4, !tbaa !99
  %13 = sitofp i32 %3 to float
  %14 = fdiv nsz float %12, %13
  ret float %14
}